target datalayout = "e-m:e-p270:32:32-p271:32:32-p272:64:64-i64:64-i128:128-f80:128-n8:16:32:64-S128"
target triple = "x86_64-pc-linux-gnu"

%"class.grpc_core::Timestamp" = type { i64 }
%"struct.std::atomic" = type { %"struct.std::__atomic_base" }
%"struct.std::__atomic_base" = type { i8 }
%"class.grpc_core::ExecCtx" = type { ptr, %struct.grpc_closure_list, %"struct.grpc_core::ExecCtx::CombinerData", i64, %"class.std::optional", ptr }
%struct.grpc_closure_list = type { ptr, ptr }
%"struct.grpc_core::ExecCtx::CombinerData" = type { ptr, ptr }
%"class.std::optional" = type { %"struct.std::_Optional_base" }
%"struct.std::_Optional_base" = type { %"struct.std::_Optional_payload" }
%"struct.std::_Optional_payload" = type { %"struct.std::_Optional_payload.base.7", [7 x i8] }
%"struct.std::_Optional_payload.base.7" = type { %"struct.std::_Optional_payload_base.base.6" }
%"struct.std::_Optional_payload_base.base.6" = type <{ %"union.std::_Optional_payload_base<grpc_core::ScopedTimeCache>::_Storage", i8 }>
%"union.std::_Optional_payload_base<grpc_core::ScopedTimeCache>::_Storage" = type { %"class.grpc_core::ScopedTimeCache" }
%"class.grpc_core::ScopedTimeCache" = type { %"class.grpc_core::Timestamp::ScopedSource", %"class.std::optional.1" }
%"class.grpc_core::Timestamp::ScopedSource" = type { %"class.grpc_core::Timestamp::Source", ptr }
%"class.grpc_core::Timestamp::Source" = type { ptr }
%"class.std::optional.1" = type { %"struct.std::_Optional_base.2" }
%"struct.std::_Optional_base.2" = type { %"struct.std::_Optional_payload.4" }
%"struct.std::_Optional_payload.4" = type { %"struct.std::_Optional_payload_base.base", [7 x i8] }
%"struct.std::_Optional_payload_base.base" = type <{ %"union.std::_Optional_payload_base<grpc_core::Timestamp>::_Storage", i8 }>
%"union.std::_Optional_payload_base<grpc_core::Timestamp>::_Storage" = type { %"class.grpc_core::Timestamp" }
%"struct.std::_Optional_payload_base" = type <{ %"union.std::_Optional_payload_base<grpc_core::ScopedTimeCache>::_Storage", i8, [7 x i8] }>

@_ZTVN9grpc_core7ExecCtxE = linkonce_odr unnamed_addr constant { [5 x ptr] } { [5 x ptr] [ptr null, ptr @_ZTIN9grpc_core7ExecCtxE, ptr @_ZN9grpc_core7ExecCtxD2Ev, ptr @_ZN9grpc_core7ExecCtxD0Ev, ptr @_ZN9grpc_core7ExecCtx18CheckReadyToFinishEv] }, comdat, align 8
@_ZN9grpc_core7ExecCtx9exec_ctx_E = external thread_local global ptr, align 8
@_ZN9grpc_core4Fork16support_enabled_E = external global %"struct.std::atomic", align 1
@_ZTVN9grpc_core9Timestamp12ScopedSourceE = linkonce_odr unnamed_addr constant { [4 x ptr] } { [4 x ptr] [ptr null, ptr @_ZTIN9grpc_core9Timestamp12ScopedSourceE, ptr @__cxa_pure_virtual, ptr @_ZN9grpc_core9Timestamp12ScopedSource15InvalidateCacheEv] }, comdat, align 8
@_ZN9grpc_core9Timestamp25thread_local_time_source_E = external thread_local global ptr, align 8

; Function Attrs: uwtable
define linkonce_odr hidden noundef ptr @_ZTWN9grpc_core9Timestamp25thread_local_time_source_E() #9 comdat {
  %1 = icmp ne ptr @_ZTHN9grpc_core9Timestamp25thread_local_time_source_E, null
  br i1 %1, label %2, label %3

2:                                                ; preds = %0
  call void @_ZTHN9grpc_core9Timestamp25thread_local_time_source_E()
  br label %3

3:                                                ; preds = %2, %0
  %4 = call align 8 ptr @llvm.threadlocal.address.p0(ptr align 8 @_ZN9grpc_core9Timestamp25thread_local_time_source_E)
  ret ptr %4
}

; Function Attrs: mustprogress nounwind uwtable
define linkonce_odr void @_ZNSt22_Optional_payload_baseIN9grpc_core15ScopedTimeCacheEE8_StorageIS1_Lb0EEC2Ev(ptr noundef nonnull align 8 dereferenceable(32) %0) unnamed_addr #6 comdat align 2 {
  %2 = alloca ptr, align 8
  store ptr %0, ptr %2, align 8, !tbaa !54
  ret void
}

; Function Attrs: mustprogress nounwind uwtable
define linkonce_odr void @_ZN9grpc_core9Timestamp12ScopedSourceD2Ev(ptr noundef nonnull align 8 dereferenceable(16) %0) unnamed_addr #6 comdat align 2 {
  %2 = alloca ptr, align 8
  store ptr %0, ptr %2, align 8, !tbaa !64
  %3 = load ptr, ptr %2, align 8
  store ptr getelementptr inbounds inrange(-16, 16) ({ [4 x ptr] }, ptr @_ZTVN9grpc_core9Timestamp12ScopedSourceE, i32 0, i32 0, i32 2), ptr %3, align 8, !tbaa !8
  %4 = getelementptr inbounds nuw %"class.grpc_core::Timestamp::ScopedSource", ptr %3, i32 0, i32 1
  %5 = load ptr, ptr %4, align 8, !tbaa !66
  %6 = call ptr @_ZTWN9grpc_core9Timestamp25thread_local_time_source_E()
  store ptr %5, ptr %6, align 8, !tbaa !70
  ret void
}

; Function Attrs: mustprogress nounwind uwtable
define linkonce_odr void @_ZNSt22_Optional_payload_baseIN9grpc_core15ScopedTimeCacheEEC2Ev(ptr noundef nonnull align 8 dereferenceable(33) %0) unnamed_addr #6 comdat align 2 {
  %2 = alloca ptr, align 8
  store ptr %0, ptr %2, align 8, !tbaa !51
  %3 = load ptr, ptr %2, align 8
  %4 = getelementptr inbounds nuw %"struct.std::_Optional_payload_base", ptr %3, i32 0, i32 0
  call void @_ZNSt22_Optional_payload_baseIN9grpc_core15ScopedTimeCacheEE8_StorageIS1_Lb0EEC2Ev(ptr noundef nonnull align 8 dereferenceable(32) %4) #3
  %5 = getelementptr inbounds nuw %"struct.std::_Optional_payload_base", ptr %3, i32 0, i32 1
  store i8 0, ptr %5, align 8, !tbaa !53
  ret void
}

; Function Attrs: mustprogress nounwind uwtable
define linkonce_odr void @_ZNSt22_Optional_payload_baseIN9grpc_core15ScopedTimeCacheEE8_StorageIS1_Lb0EED2Ev(ptr noundef nonnull align 8 dereferenceable(32) %0) unnamed_addr #6 comdat align 2 {
  %2 = alloca ptr, align 8
  store ptr %0, ptr %2, align 8, !tbaa !54
  ret void
}

; Function Attrs: mustprogress nounwind uwtable
define linkonce_odr void @_ZNSt22_Optional_payload_baseIN9grpc_core15ScopedTimeCacheEE10_M_destroyEv(ptr noundef nonnull align 8 dereferenceable(33) %0) #6 comdat align 2 {
  %2 = alloca ptr, align 8
  store ptr %0, ptr %2, align 8, !tbaa !51
  %3 = load ptr, ptr %2, align 8
  %4 = getelementptr inbounds nuw %"struct.std::_Optional_payload_base", ptr %3, i32 0, i32 1
  store i8 0, ptr %4, align 8, !tbaa !53
  %5 = getelementptr inbounds nuw %"struct.std::_Optional_payload_base", ptr %3, i32 0, i32 0
  call void @_ZN9grpc_core9Timestamp12ScopedSourceD2Ev(ptr noundef nonnull align 8 dereferenceable(32) %5) #3
  ret void
}

; Function Attrs: mustprogress nounwind uwtable
define linkonce_odr noundef i32 @_ZStanSt12memory_orderSt23__memory_order_modifier(i32 noundef %0, i32 noundef %1) #6 comdat {
  %3 = alloca i32, align 4
  %4 = alloca i32, align 4
  store i32 %0, ptr %3, align 4, !tbaa !58
  store i32 %1, ptr %4, align 4, !tbaa !62
  %5 = load i32, ptr %3, align 4, !tbaa !58
  %6 = load i32, ptr %4, align 4, !tbaa !62
  %7 = and i32 %5, %6
  ret i32 %7
}

; Function Attrs: mustprogress nounwind uwtable
define linkonce_odr void @_ZNSt17_Optional_payloadIN9grpc_core15ScopedTimeCacheELb1ELb0ELb0EEC2Ev(ptr noundef nonnull align 8 dereferenceable(33) %0) unnamed_addr #6 comdat align 2 {
  %2 = alloca ptr, align 8
  store ptr %0, ptr %2, align 8, !tbaa !49
  %3 = load ptr, ptr %2, align 8
  call void @_ZNSt22_Optional_payload_baseIN9grpc_core15ScopedTimeCacheEEC2Ev(ptr noundef nonnull align 8 dereferenceable(33) %3) #3
  ret void
}

; Function Attrs: mustprogress nounwind uwtable
define linkonce_odr void @_ZNSt22_Optional_payload_baseIN9grpc_core15ScopedTimeCacheEED2Ev(ptr noundef nonnull align 8 dereferenceable(33) %0) unnamed_addr #6 comdat align 2 {
  %2 = alloca ptr, align 8
  store ptr %0, ptr %2, align 8, !tbaa !51
  %3 = load ptr, ptr %2, align 8
  %4 = getelementptr inbounds nuw %"struct.std::_Optional_payload_base", ptr %3, i32 0, i32 0
  call void @_ZNSt22_Optional_payload_baseIN9grpc_core15ScopedTimeCacheEE8_StorageIS1_Lb0EED2Ev(ptr noundef nonnull align 8 dereferenceable(32) %4) #3
  ret void
}

; Function Attrs: mustprogress nounwind uwtable
define linkonce_odr void @_ZNSt22_Optional_payload_baseIN9grpc_core15ScopedTimeCacheEE8_M_resetEv(ptr noundef nonnull align 8 dereferenceable(33) %0) #6 comdat align 2 {
  %2 = alloca ptr, align 8
  store ptr %0, ptr %2, align 8, !tbaa !51
  %3 = load ptr, ptr %2, align 8
  %4 = getelementptr inbounds nuw %"struct.std::_Optional_payload_base", ptr %3, i32 0, i32 1
  %5 = load i8, ptr %4, align 8, !tbaa !53, !range !35, !noundef !36
  %6 = trunc i8 %5 to i1
  br i1 %6, label %7, label %8

7:                                                ; preds = %1
  call void @_ZNSt22_Optional_payload_baseIN9grpc_core15ScopedTimeCacheEE10_M_destroyEv(ptr noundef nonnull align 8 dereferenceable(33) %3) #3
  br label %8

8:                                                ; preds = %7, %1
  ret void
}

; Function Attrs: alwaysinline mustprogress nounwind uwtable
define linkonce_odr noundef zeroext i1 @_ZNKSt13__atomic_baseIbE4loadESt12memory_order(ptr noundef nonnull align 1 dereferenceable(1) %0, i32 noundef %1) #11 comdat align 2 personality ptr @__gxx_personality_v0 {
  %3 = alloca ptr, align 8
  %4 = alloca i32, align 4
  %5 = alloca i32, align 4
  %6 = alloca i8, align 1
  store ptr %0, ptr %3, align 8, !tbaa !60
  store i32 %1, ptr %4, align 4, !tbaa !58
  %7 = load ptr, ptr %3, align 8
  call void @llvm.lifetime.start.p0(i64 4, ptr %5) #3
  %8 = load i32, ptr %4, align 4, !tbaa !58
  %9 = invoke noundef i32 @_ZStanSt12memory_orderSt23__memory_order_modifier(i32 noundef %8, i32 noundef 65535)
          to label %10 unwind label %28

10:                                               ; preds = %2
  store i32 %9, ptr %5, align 4, !tbaa !58
  br label %11

11:                                               ; preds = %10
  br label %12

12:                                               ; preds = %11
  br label %13

13:                                               ; preds = %12
  br label %14

14:                                               ; preds = %13
  br label %15

15:                                               ; preds = %14
  br label %16

16:                                               ; preds = %15
  %17 = getelementptr inbounds nuw %"struct.std::__atomic_base", ptr %7, i32 0, i32 0
  %18 = load i32, ptr %4, align 4, !tbaa !58
  switch i32 %18, label %19 [
    i32 1, label %21
    i32 2, label %21
    i32 5, label %23
  ]

19:                                               ; preds = %16
  %20 = load atomic i8, ptr %17 monotonic, align 1
  store i8 %20, ptr %6, align 1
  br label %25

21:                                               ; preds = %16, %16
  %22 = load atomic i8, ptr %17 acquire, align 1
  store i8 %22, ptr %6, align 1
  br label %25

23:                                               ; preds = %16
  %24 = load atomic i8, ptr %17 seq_cst, align 1
  store i8 %24, ptr %6, align 1
  br label %25

25:                                               ; preds = %23, %21, %19
  %26 = load i8, ptr %6, align 1, !tbaa !28, !range !35, !noundef !36
  %27 = trunc i8 %26 to i1
  call void @llvm.lifetime.end.p0(i64 4, ptr %5) #3
  ret i1 %27

28:                                               ; preds = %2
  %29 = landingpad { ptr, i32 }
          catch ptr null
  %30 = extractvalue { ptr, i32 } %29, 0
  call void @__clang_call_terminate(ptr %30) #18
  unreachable
}

; Function Attrs: mustprogress nounwind uwtable
define linkonce_odr void @_ZNSt17_Optional_payloadIN9grpc_core15ScopedTimeCacheELb0ELb0ELb0EEC2Ev(ptr noundef nonnull align 8 dereferenceable(33) %0) unnamed_addr #6 comdat align 2 {
  %2 = alloca ptr, align 8
  store ptr %0, ptr %2, align 8, !tbaa !47
  %3 = load ptr, ptr %2, align 8
  call void @_ZNSt17_Optional_payloadIN9grpc_core15ScopedTimeCacheELb1ELb0ELb0EEC2Ev(ptr noundef nonnull align 8 dereferenceable(33) %3) #3
  ret void
}

; Function Attrs: mustprogress nounwind uwtable
define linkonce_odr void @_ZNSt17_Optional_payloadIN9grpc_core15ScopedTimeCacheELb0ELb0ELb0EED2Ev(ptr noundef nonnull align 8 dereferenceable(33) %0) unnamed_addr #6 comdat align 2 {
  %2 = alloca ptr, align 8
  store ptr %0, ptr %2, align 8, !tbaa !47
  %3 = load ptr, ptr %2, align 8
  call void @_ZNSt22_Optional_payload_baseIN9grpc_core15ScopedTimeCacheEE8_M_resetEv(ptr noundef nonnull align 8 dereferenceable(33) %3) #3
  call void @_ZNSt22_Optional_payload_baseIN9grpc_core15ScopedTimeCacheEED2Ev(ptr noundef nonnull align 8 dereferenceable(33) %3) #3
  ret void
}

; Function Attrs: mustprogress nounwind uwtable
define linkonce_odr noundef zeroext i1 @_ZNKSt6atomicIbE4loadESt12memory_order(ptr noundef nonnull align 1 dereferenceable(1) %0, i32 noundef %1) #6 comdat align 2 {
  %3 = alloca ptr, align 8
  %4 = alloca i32, align 4
  store ptr %0, ptr %3, align 8, !tbaa !56
  store i32 %1, ptr %4, align 4, !tbaa !58
  %5 = load ptr, ptr %3, align 8
  %6 = getelementptr inbounds nuw %"struct.std::atomic", ptr %5, i32 0, i32 0
  %7 = load i32, ptr %4, align 4, !tbaa !58
  %8 = call noundef zeroext i1 @_ZNKSt13__atomic_baseIbE4loadESt12memory_order(ptr noundef nonnull align 1 dereferenceable(1) %6, i32 noundef %7) #3
  ret i1 %8
}

; Function Attrs: uwtable
define linkonce_odr hidden noundef ptr @_ZTWN9grpc_core7ExecCtx9exec_ctx_E() #9 comdat {
  %1 = icmp ne ptr @_ZTHN9grpc_core7ExecCtx9exec_ctx_E, null
  br i1 %1, label %2, label %3

2:                                                ; preds = %0
  call void @_ZTHN9grpc_core7ExecCtx9exec_ctx_E()
  br label %3

3:                                                ; preds = %2, %0
  %4 = call align 8 ptr @llvm.threadlocal.address.p0(ptr align 8 @_ZN9grpc_core7ExecCtx9exec_ctx_E)
  ret ptr %4
}

; Function Attrs: mustprogress nounwind uwtable
define linkonce_odr void @_ZNSt14_Optional_baseIN9grpc_core15ScopedTimeCacheELb0ELb0EEC2Ev(ptr noundef nonnull align 8 dereferenceable(40) %0) unnamed_addr #6 comdat align 2 {
  %2 = alloca ptr, align 8
  store ptr %0, ptr %2, align 8, !tbaa !45
  %3 = load ptr, ptr %2, align 8
  %4 = getelementptr inbounds nuw %"struct.std::_Optional_base", ptr %3, i32 0, i32 0
  call void @_ZNSt17_Optional_payloadIN9grpc_core15ScopedTimeCacheELb0ELb0ELb0EEC2Ev(ptr noundef nonnull align 8 dereferenceable(33) %4) #3
  ret void
}

; Function Attrs: inlinehint mustprogress nounwind uwtable
define linkonce_odr void @_ZNSt14_Optional_baseIN9grpc_core15ScopedTimeCacheELb0ELb0EED2Ev(ptr noundef nonnull align 8 dereferenceable(40) %0) unnamed_addr #8 comdat align 2 {
  %2 = alloca ptr, align 8
  store ptr %0, ptr %2, align 8, !tbaa !45
  %3 = load ptr, ptr %2, align 8
  %4 = getelementptr inbounds nuw %"struct.std::_Optional_base", ptr %3, i32 0, i32 0
  call void @_ZNSt17_Optional_payloadIN9grpc_core15ScopedTimeCacheELb0ELb0ELb0EED2Ev(ptr noundef nonnull align 8 dereferenceable(33) %4) #3
  ret void
}

; Function Attrs: mustprogress uwtable
define linkonce_odr void @_ZN9grpc_core7ExecCtx3SetEPS0_(ptr noundef %0) #4 comdat align 2 {
  %2 = alloca ptr, align 8
  store ptr %0, ptr %2, align 8, !tbaa !3
  %3 = load ptr, ptr %2, align 8, !tbaa !3
  %4 = call ptr @_ZTWN9grpc_core7ExecCtx9exec_ctx_E()
  store ptr %3, ptr %4, align 8, !tbaa !3
  ret void
}

; Function Attrs: mustprogress uwtable
define linkonce_odr void @_ZN9grpc_core4Fork15IncExecCtxCountEv() #4 comdat align 2 {
  %1 = call noundef zeroext i1 @_ZNKSt6atomicIbE4loadESt12memory_order(ptr noundef nonnull align 1 dereferenceable(1) @_ZN9grpc_core4Fork16support_enabled_E, i32 noundef 0) #3
  %2 = zext i1 %1 to i64
  %3 = call i64 @llvm.expect.i64(i64 %2, i64 0)
  %4 = icmp ne i64 %3, 0
  br i1 %4, label %5, label %6

5:                                                ; preds = %0
  call void @_ZN9grpc_core4Fork17DoIncExecCtxCountEv()
  br label %6

6:                                                ; preds = %5, %0
  ret void
}

; Function Attrs: mustprogress uwtable
define linkonce_odr noundef ptr @_ZN9grpc_core7ExecCtx3GetEv() #4 comdat align 2 {
  %1 = call ptr @_ZTWN9grpc_core7ExecCtx9exec_ctx_E()
  %2 = load ptr, ptr %1, align 8, !tbaa !3
  ret ptr %2
}

; Function Attrs: mustprogress nounwind uwtable
define linkonce_odr void @_ZNSt8optionalIN9grpc_core15ScopedTimeCacheEEC2Ev(ptr noundef nonnull align 8 dereferenceable(40) %0) unnamed_addr #6 comdat align 2 {
  %2 = alloca ptr, align 8
  store ptr %0, ptr %2, align 8, !tbaa !43
  %3 = load ptr, ptr %2, align 8
  call void @_ZNSt14_Optional_baseIN9grpc_core15ScopedTimeCacheELb0ELb0EEC2Ev(ptr noundef nonnull align 8 dereferenceable(40) %3) #3
  ret void
}

; Function Attrs: mustprogress nounwind uwtable
define linkonce_odr void @_ZN9grpc_core10latent_see11ParentScopeC2EPNS0_8MetadataE(ptr noundef nonnull align 1 dereferenceable(1) %0, ptr noundef %1) unnamed_addr #6 comdat align 2 {
  %3 = alloca ptr, align 8
  %4 = alloca ptr, align 8
  store ptr %0, ptr %3, align 8, !tbaa !39
  store ptr %1, ptr %4, align 8, !tbaa !41
  ret void
}

; Function Attrs: mustprogress uwtable
define linkonce_odr void @_ZN9grpc_core7ExecCtxC2Ev(ptr noundef nonnull align 8 dereferenceable(96) %0) unnamed_addr #4 comdat align 2 personality ptr @__gxx_personality_v0 {
  %2 = alloca ptr, align 8
  %3 = alloca ptr, align 8
  %4 = alloca i32, align 4
  store ptr %0, ptr %2, align 8, !tbaa !3
  %5 = load ptr, ptr %2, align 8
  call void @_ZN9grpc_core10latent_see11ParentScopeC2EPNS0_8MetadataE(ptr noundef nonnull align 1 dereferenceable(1) %5, ptr noundef null)
  store ptr getelementptr inbounds inrange(-16, 24) ({ [5 x ptr] }, ptr @_ZTVN9grpc_core7ExecCtxE, i32 0, i32 0, i32 2), ptr %5, align 8, !tbaa !8
  %6 = getelementptr inbounds nuw %"class.grpc_core::ExecCtx", ptr %5, i32 0, i32 1
  %7 = getelementptr inbounds nuw %struct.grpc_closure_list, ptr %6, i32 0, i32 0
  store ptr null, ptr %7, align 8, !tbaa !10
  %8 = getelementptr inbounds nuw %struct.grpc_closure_list, ptr %6, i32 0, i32 1
  store ptr null, ptr %8, align 8, !tbaa !13
  %9 = getelementptr inbounds nuw %"class.grpc_core::ExecCtx", ptr %5, i32 0, i32 2
  %10 = getelementptr inbounds nuw %"struct.grpc_core::ExecCtx::CombinerData", ptr %9, i32 0, i32 0
  store ptr null, ptr %10, align 8, !tbaa !14
  %11 = getelementptr inbounds nuw %"struct.grpc_core::ExecCtx::CombinerData", ptr %9, i32 0, i32 1
  store ptr null, ptr %11, align 8, !tbaa !17
  %12 = getelementptr inbounds nuw %"class.grpc_core::ExecCtx", ptr %5, i32 0, i32 3
  store i64 1, ptr %12, align 8, !tbaa !18
  %13 = getelementptr inbounds nuw %"class.grpc_core::ExecCtx", ptr %5, i32 0, i32 4
  call void @_ZNSt8optionalIN9grpc_core15ScopedTimeCacheEEC2Ev(ptr noundef nonnull align 8 dereferenceable(40) %13) #3
  %14 = getelementptr inbounds nuw %"class.grpc_core::ExecCtx", ptr %5, i32 0, i32 5
  %15 = invoke noundef ptr @_ZN9grpc_core7ExecCtx3GetEv()
          to label %16 unwind label %19

16:                                               ; preds = %1
  store ptr %15, ptr %14, align 8, !tbaa !27
  invoke void @_ZN9grpc_core4Fork15IncExecCtxCountEv()
          to label %17 unwind label %19

17:                                               ; preds = %16
  invoke void @_ZN9grpc_core7ExecCtx3SetEPS0_(ptr noundef %5)
          to label %18 unwind label %19

18:                                               ; preds = %17
  ret void

19:                                               ; preds = %17, %16, %1
  %20 = landingpad { ptr, i32 }
          cleanup
  %21 = extractvalue { ptr, i32 } %20, 0
  store ptr %21, ptr %3, align 8
  %22 = extractvalue { ptr, i32 } %20, 1
  store i32 %22, ptr %4, align 4
  call void @_ZNSt14_Optional_baseIN9grpc_core15ScopedTimeCacheELb0ELb0EED2Ev(ptr noundef nonnull align 8 dereferenceable(40) %13) #3
  br label %23

23:                                               ; preds = %19
  %24 = load ptr, ptr %3, align 8
  %25 = load i32, ptr %4, align 4
  %26 = insertvalue { ptr, i32 } poison, ptr %24, 0
  %27 = insertvalue { ptr, i32 } %26, i32 %25, 1
  resume { ptr, i32 } %27
}

; Function Attrs: mustprogress uwtable
define void @_Z23grpc_timer_manager_tickv() #4 personality ptr @__gxx_personality_v0 {
  %1 = alloca %"class.grpc_core::ExecCtx", align 8
  %2 = alloca ptr, align 8
  %3 = alloca i32, align 4
  call void @llvm.lifetime.start.p0(i64 96, ptr %1) #3
  call void @_ZN9grpc_core7ExecCtxC2Ev(ptr noundef nonnull align 8 dereferenceable(96) %1)
  %4 = invoke noundef i32 @_Z16grpc_timer_checkPN9grpc_core9TimestampE(ptr noundef null)
          to label %5 unwind label %6

5:                                                ; preds = %0
  call void @_ZN9grpc_core7ExecCtxD2Ev(ptr noundef nonnull align 8 dereferenceable(96) %1) #3
  call void @llvm.lifetime.end.p0(i64 96, ptr %1) #3
  ret void

6:                                                ; preds = %0
  %7 = landingpad { ptr, i32 }
          cleanup
  %8 = extractvalue { ptr, i32 } %7, 0
  store ptr %8, ptr %2, align 8
  %9 = extractvalue { ptr, i32 } %7, 1
  store i32 %9, ptr %3, align 4
  call void @_ZN9grpc_core7ExecCtxD2Ev(ptr noundef nonnull align 8 dereferenceable(96) %1) #3
  call void @llvm.lifetime.end.p0(i64 96, ptr %1) #3
  br label %10

10:                                               ; preds = %6
  %11 = load ptr, ptr %2, align 8
  %12 = load i32, ptr %3, align 4
  %13 = insertvalue { ptr, i32 } poison, ptr %11, 0
  %14 = insertvalue { ptr, i32 } %13, i32 %12, 1
  resume { ptr, i32 } %14
}