; Function Attrs: uwtable
define void @_Z23grpc_timer_manager_tickv() local_unnamed_addr #3 personality ptr @__gxx_personality_v0 {
  %1 = alloca %"class.grpc_core::ExecCtx", align 8
  call void @llvm.lifetime.start.p0(i64 96, ptr nonnull %1) #21
  store ptr getelementptr inbounds nuw inrange(-16, 24) (i8, ptr @_ZTVN9grpc_core7ExecCtxE, i64 16), ptr %1, align 8, !tbaa !3
  %2 = getelementptr inbounds nuw i8, ptr %1, i64 8
  %3 = getelementptr inbounds nuw i8, ptr %1, i64 40
  call void @llvm.memset.p0.i64(ptr noundef nonnull align 8 dereferenceable(32) %2, i8 0, i64 32, i1 false)
  store i64 1, ptr %3, align 8, !tbaa !6
  %4 = getelementptr inbounds nuw i8, ptr %1, i64 48
  %5 = getelementptr inbounds nuw i8, ptr %1, i64 80
  store i8 0, ptr %5, align 8, !tbaa !22
  %.not.i.i.i = icmp eq ptr @_ZTHN9grpc_core7ExecCtx9exec_ctx_E, null
  br i1 %.not.i.i.i, label %7, label %6

6:                                                ; preds = %0
  tail call void @_ZTHN9grpc_core7ExecCtx9exec_ctx_E()
  br label %7

7:                                                ; preds = %6, %0
  %8 = tail call noundef align 8 ptr @llvm.threadlocal.address.p0(ptr align 8 @_ZN9grpc_core7ExecCtx9exec_ctx_E)
  %9 = load ptr, ptr %8, align 8, !tbaa !23
  %10 = getelementptr inbounds nuw i8, ptr %1, i64 88
  store ptr %9, ptr %10, align 8, !tbaa !24
  %11 = load atomic i8, ptr @_ZN9grpc_core4Fork16support_enabled_E monotonic, align 1
  %12 = trunc i8 %11 to i1
  br i1 %12, label %13, label %_ZN9grpc_core4Fork15IncExecCtxCountEv.exit.i, !prof !25

13:                                               ; preds = %7
  tail call void @_ZN9grpc_core4Fork17DoIncExecCtxCountEv()
  br label %_ZN9grpc_core4Fork15IncExecCtxCountEv.exit.i

_ZN9grpc_core4Fork15IncExecCtxCountEv.exit.i:     ; preds = %13, %7
  br i1 %.not.i.i.i, label %_ZN9grpc_core7ExecCtxC2Ev.exit, label %14

14:                                               ; preds = %_ZN9grpc_core4Fork15IncExecCtxCountEv.exit.i
  tail call void @_ZTHN9grpc_core7ExecCtx9exec_ctx_E()
  br label %_ZN9grpc_core7ExecCtxC2Ev.exit

_ZN9grpc_core7ExecCtxC2Ev.exit:                   ; preds = %14, %_ZN9grpc_core4Fork15IncExecCtxCountEv.exit.i
  store ptr %1, ptr %8, align 8, !tbaa !23
  %15 = invoke noundef i32 @_Z16grpc_timer_checkPN9grpc_core9TimestampE(ptr noundef null)
          to label %16 unwind label %common.resume

16:                                               ; preds = %_ZN9grpc_core7ExecCtxC2Ev.exit
  store ptr getelementptr inbounds nuw inrange(-16, 24) (i8, ptr @_ZTVN9grpc_core7ExecCtxE, i64 16), ptr %1, align 8, !tbaa !3
  %17 = load i64, ptr %3, align 8, !tbaa !6
  %18 = or i64 %17, 1
  store i64 %18, ptr %3, align 8, !tbaa !6
  %19 = invoke noundef zeroext i1 @_ZN9grpc_core7ExecCtx5FlushEv(ptr noundef nonnull align 8 dereferenceable(96) %1)
          to label %20 unwind label %37

20:                                               ; preds = %16
  %21 = load ptr, ptr %10, align 8, !tbaa !24
  br i1 %.not.i.i.i, label %23, label %22

22:                                               ; preds = %20
  invoke void @_ZTHN9grpc_core7ExecCtx9exec_ctx_E()
          to label %23 unwind label %37

23:                                               ; preds = %22, %20
  store ptr %21, ptr %8, align 8, !tbaa !23
  %24 = load i64, ptr %3, align 8, !tbaa !6
  %25 = and i64 %24, 4
  %.not.i = icmp eq i64 %25, 0
  br i1 %.not.i, label %26, label %_ZN9grpc_core4Fork15DecExecCtxCountEv.exit.i

26:                                               ; preds = %23
  %27 = load atomic i8, ptr @_ZN9grpc_core4Fork16support_enabled_E monotonic, align 1
  %28 = trunc i8 %27 to i1
  br i1 %28, label %29, label %_ZN9grpc_core4Fork15DecExecCtxCountEv.exit.i, !prof !25

29:                                               ; preds = %26
  invoke void @_ZN9grpc_core4Fork17DoDecExecCtxCountEv()
          to label %_ZN9grpc_core4Fork15DecExecCtxCountEv.exit.i unwind label %37

_ZN9grpc_core4Fork15DecExecCtxCountEv.exit.i:     ; preds = %29, %26, %23
  %30 = load i8, ptr %5, align 8, !tbaa !22, !range !26, !noundef !27
  %31 = trunc nuw i8 %30 to i1
  br i1 %31, label %32, label %_ZN9grpc_core7ExecCtxD2Ev.exit

32:                                               ; preds = %_ZN9grpc_core4Fork15DecExecCtxCountEv.exit.i
  store i8 0, ptr %5, align 8, !tbaa !22
  store ptr getelementptr inbounds nuw inrange(-16, 16) (i8, ptr @_ZTVN9grpc_core9Timestamp12ScopedSourceE, i64 16), ptr %4, align 8, !tbaa !3
  %33 = getelementptr inbounds nuw i8, ptr %1, i64 56
  %34 = load ptr, ptr %33, align 8, !tbaa !28
  %.not.i.i.i.i.i.i.i3 = icmp eq ptr @_ZTHN9grpc_core9Timestamp25thread_local_time_source_E, null
  br i1 %.not.i.i.i.i.i.i.i3, label %_ZNSt22_Optional_payload_baseIN9grpc_core15ScopedTimeCacheEE10_M_destroyEv.exit.i.i.i.i4, label %35

35:                                               ; preds = %32
  call void @_ZTHN9grpc_core9Timestamp25thread_local_time_source_E() #21
  br label %_ZNSt22_Optional_payload_baseIN9grpc_core15ScopedTimeCacheEE10_M_destroyEv.exit.i.i.i.i4

_ZNSt22_Optional_payload_baseIN9grpc_core15ScopedTimeCacheEE10_M_destroyEv.exit.i.i.i.i4: ; preds = %35, %32
  %36 = call noundef align 8 ptr @llvm.threadlocal.address.p0(ptr align 8 @_ZN9grpc_core9Timestamp25thread_local_time_source_E)
  store ptr %34, ptr %36, align 8, !tbaa !32
  br label %_ZN9grpc_core7ExecCtxD2Ev.exit

37:                                               ; preds = %29, %22, %16
  %38 = landingpad { ptr, i32 }
          catch ptr null
  %39 = extractvalue { ptr, i32 } %38, 0
  call void @__clang_call_terminate(ptr %39) #22
  unreachable

_ZN9grpc_core7ExecCtxD2Ev.exit:                   ; preds = %_ZN9grpc_core4Fork15DecExecCtxCountEv.exit.i, %_ZNSt22_Optional_payload_baseIN9grpc_core15ScopedTimeCacheEE10_M_destroyEv.exit.i.i.i.i4
  call void @llvm.lifetime.end.p0(i64 96, ptr nonnull %1) #21
  ret void

common.resume:                                    ; preds = %_ZN9grpc_core7ExecCtxC2Ev.exit
  %40 = landingpad { ptr, i32 }
          cleanup
  call void @_ZN9grpc_core7ExecCtxD2Ev(ptr noundef nonnull align 8 dereferenceable(96) %1) #21
  call void @llvm.lifetime.end.p0(i64 96, ptr nonnull %1) #21
  resume { ptr, i32 } %40
}